; Function Attrs: mustprogress uwtable
define hidden void @_ZNK4cvc58internal5DType14getCardinalityEv(ptr dead_on_unwind noalias writable sret(%"class.cvc5::internal::Cardinality") align 8 %0, ptr noundef nonnull align 8 dereferenceable(448) %1) local_unnamed_addr #3 align 2 personality ptr @__gxx_personality_v0 {
  %3 = alloca %"class.cvc5::internal::TypeNode", align 8
  %4 = getelementptr inbounds nuw i8, ptr %1, i64 96
  %5 = load ptr, ptr %4, align 8, !tbaa !61
  store ptr %5, ptr %3, align 8, !tbaa !61
  %6 = load i64, ptr %5, align 8
  %7 = lshr i64 %6, 40
  %8 = trunc nuw nsw i64 %7 to i32
  %9 = and i32 %8, 1048575
  %10 = icmp samesign ult i32 %9, 1048574
  br i1 %10, label %11, label %16, !prof !92

11:                                               ; preds = %2
  %12 = add i64 %6, 1099511627776
  %13 = and i64 %12, 1152920405095219200
  %14 = and i64 %6, -1152920405095219201
  %15 = or disjoint i64 %13, %14
  store i64 %15, ptr %5, align 8
  br label %_ZN4cvc58internal8TypeNodeC2ERKS1_.exit

16:                                               ; preds = %2
  %17 = icmp eq i32 %9, 1048574
  br i1 %17, label %18, label %_ZN4cvc58internal8TypeNodeC2ERKS1_.exit, !prof !72

18:                                               ; preds = %16
  %19 = or i64 %6, 1152920405095219200
  store i64 %19, ptr %5, align 8
  tail call void @_ZN4cvc58internal4expr9NodeValue20markRefCountMaxedOutEv(ptr noundef nonnull align 8 dereferenceable(24) %5)
  br label %_ZN4cvc58internal8TypeNodeC2ERKS1_.exit

_ZN4cvc58internal8TypeNodeC2ERKS1_.exit:          ; preds = %11, %16, %18
  invoke void @_ZNK4cvc58internal5DType14getCardinalityENS0_8TypeNodeE(ptr dead_on_unwind writable sret(%"class.cvc5::internal::Cardinality") align 8 %0, ptr noundef nonnull align 8 dereferenceable(448) %1, ptr noundef nonnull %3)
          to label %20 unwind label %33

20:                                               ; preds = %_ZN4cvc58internal8TypeNodeC2ERKS1_.exit
  %21 = load i64, ptr %5, align 8
  %22 = and i64 %21, 1152920405095219200
  %.not.i.i = icmp eq i64 %22, 1152920405095219200
  br i1 %.not.i.i, label %_ZN4cvc58internal8TypeNodeD2Ev.exit, label %23, !prof !72

23:                                               ; preds = %20
  %24 = add i64 %21, 1152920405095219200
  %25 = and i64 %24, 1152920405095219200
  %26 = and i64 %21, -1152920405095219201
  %27 = or disjoint i64 %25, %26
  store i64 %27, ptr %5, align 8
  %28 = icmp eq i64 %25, 0
  br i1 %28, label %29, label %_ZN4cvc58internal8TypeNodeD2Ev.exit, !prof !72

29:                                               ; preds = %23
  invoke void @_ZN4cvc58internal4expr9NodeValue15markForDeletionEv(ptr noundef nonnull align 8 dereferenceable(24) %5)
          to label %_ZN4cvc58internal8TypeNodeD2Ev.exit unwind label %30

30:                                               ; preds = %29
  %31 = landingpad { ptr, i32 }
          catch ptr null
  %32 = extractvalue { ptr, i32 } %31, 0
  tail call void @__clang_call_terminate(ptr %32) #32
  unreachable

_ZN4cvc58internal8TypeNodeD2Ev.exit:              ; preds = %20, %23, %29
  ret void

33:                                               ; preds = %_ZN4cvc58internal8TypeNodeC2ERKS1_.exit
  %34 = landingpad { ptr, i32 }
          cleanup
  call void @_ZN4cvc58internal8TypeNodeD2Ev(ptr noundef nonnull align 8 dereferenceable(8) %3) #29
  resume { ptr, i32 } %34
}